; Function Attrs: cold nounwind optsize uwtable
define internal range(i32 -22, 1) i32 @adx_encode_init(ptr noundef %0) #0 {
  %2 = getelementptr inbounds nuw i8, ptr %0, i64 356
  %3 = load i32, ptr %2, align 4, !tbaa !4
  %4 = icmp sgt i32 %3, 2
  br i1 %4, label %5, label %6

5:                                                ; preds = %1
  tail call void (ptr, i32, ptr, ...) @av_log(ptr noundef nonnull %0, i32 noundef 16, ptr noundef nonnull @.str.2) #7
  br label %14

6:                                                ; preds = %1
  %7 = getelementptr inbounds nuw i8, ptr %0, i64 32
  %8 = load ptr, ptr %7, align 8, !tbaa !27
  %9 = getelementptr inbounds nuw i8, ptr %0, i64 376
  store i32 32, ptr %9, align 8, !tbaa !28
  %10 = getelementptr inbounds nuw i8, ptr %8, i64 60
  store i32 500, ptr %10, align 4, !tbaa !29
  %11 = getelementptr inbounds nuw i8, ptr %0, i64 344
  %12 = load i32, ptr %11, align 8, !tbaa !31
  %13 = getelementptr inbounds nuw i8, ptr %8, i64 64
  tail call void @ff_adx_calculate_coeffs(i32 noundef 500, i32 noundef %12, i32 noundef 12, ptr noundef nonnull %13) #7
  br label %14

14:                                               ; preds = %6, %5
  %.0 = phi i32 [ -22, %5 ], [ 0, %6 ]
  ret i32 %.0
}